target datalayout = "e-m:e-p270:32:32-p271:32:32-p272:64:64-i64:64-i128:128-f80:128-n8:16:32:64-S128"
target triple = "x86_64-pc-linux-gnu"

; Function Attrs: nounwind uwtable
define internal i64 @last_blocks_correction_nist(ptr noundef %0, ptr noundef %1, i64 noundef %2) #0 {
  %4 = alloca ptr, align 8
  %5 = alloca ptr, align 8
  %6 = alloca i64, align 8
  %7 = alloca i64, align 8
  store ptr %0, ptr %4, align 8, !tbaa !11
  store ptr %1, ptr %5, align 8, !tbaa !11
  store i64 %2, ptr %6, align 8, !tbaa !9
  call void @llvm.lifetime.start.p0(i64 8, ptr %7) #5
  %8 = load i64, ptr %6, align 8, !tbaa !9
  %9 = urem i64 %8, 16
  store i64 %9, ptr %7, align 8, !tbaa !9
  %10 = icmp eq i64 %9, 0
  br i1 %10, label %11, label %12

11:                                               ; preds = %3
  store i64 16, ptr %7, align 8, !tbaa !9
  br label %12

12:                                               ; preds = %11, %3
  %13 = load i64, ptr %7, align 8, !tbaa !9
  %14 = add i64 16, %13
  %15 = load i64, ptr %6, align 8, !tbaa !9
  %16 = sub i64 %15, %14
  store i64 %16, ptr %6, align 8, !tbaa !9
  %17 = load ptr, ptr %5, align 8, !tbaa !11
  %18 = load ptr, ptr %4, align 8, !tbaa !11
  %19 = load i64, ptr %6, align 8, !tbaa !9
  call void @llvm.memcpy.p0.p0.i64(ptr align 1 %17, ptr align 1 %18, i64 %19, i1 false)
  %20 = load ptr, ptr %5, align 8, !tbaa !11
  %21 = load i64, ptr %6, align 8, !tbaa !9
  %22 = getelementptr inbounds nuw i8, ptr %20, i64 %21
  %23 = load ptr, ptr %4, align 8, !tbaa !11
  %24 = load i64, ptr %6, align 8, !tbaa !9
  %25 = getelementptr inbounds nuw i8, ptr %23, i64 %24
  %26 = getelementptr inbounds i8, ptr %25, i64 16
  %27 = load i64, ptr %7, align 8, !tbaa !9
  call void @llvm.memcpy.p0.p0.i64(ptr align 1 %22, ptr align 1 %26, i64 %27, i1 false)
  %28 = load ptr, ptr %5, align 8, !tbaa !11
  %29 = load i64, ptr %6, align 8, !tbaa !9
  %30 = getelementptr inbounds nuw i8, ptr %28, i64 %29
  %31 = load i64, ptr %7, align 8, !tbaa !9
  %32 = getelementptr inbounds nuw i8, ptr %30, i64 %31
  %33 = load ptr, ptr %4, align 8, !tbaa !11
  %34 = load i64, ptr %6, align 8, !tbaa !9
  %35 = getelementptr inbounds nuw i8, ptr %33, i64 %34
  call void @llvm.memcpy.p0.p0.i64(ptr align 1 %32, ptr align 1 %35, i64 16, i1 false)
  %36 = load i64, ptr %7, align 8, !tbaa !9
  %37 = add i64 16, %36
  %38 = load i64, ptr %6, align 8, !tbaa !9
  %39 = add i64 %38, %37
  store i64 %39, ptr %6, align 8, !tbaa !9
  store i64 16, ptr %7, align 8, !tbaa !9
  %40 = load i64, ptr %7, align 8, !tbaa !9
  call void @llvm.lifetime.end.p0(i64 8, ptr %7) #5
  ret i64 %40
}