; Function Attrs: mustprogress nofree norecurse nosync nounwind willreturn memory(argmem: readwrite) uwtable
define internal noundef i64 @last_blocks_correction_nist(ptr noundef readonly captures(none) %0, ptr noundef writeonly captures(none) %1, i64 noundef %2) #2 {
  %4 = and i64 %2, 15
  %5 = icmp eq i64 %4, 0
  %spec.store.select = select i1 %5, i64 16, i64 %4
  %.neg = add i64 %2, -16
  %6 = sub i64 %.neg, %spec.store.select
  tail call void @llvm.memcpy.p0.p0.i64(ptr align 1 %1, ptr align 1 %0, i64 %6, i1 false)
  %7 = getelementptr inbounds nuw i8, ptr %1, i64 %6
  %8 = getelementptr inbounds nuw i8, ptr %0, i64 %6
  %9 = getelementptr inbounds nuw i8, ptr %8, i64 16
  tail call void @llvm.memcpy.p0.p0.i64(ptr noundef nonnull align 1 dereferenceable(1) %7, ptr noundef nonnull align 1 dereferenceable(1) %9, i64 %spec.store.select, i1 false)
  %10 = getelementptr inbounds nuw i8, ptr %1, i64 %.neg
  tail call void @llvm.memcpy.p0.p0.i64(ptr noundef nonnull align 1 dereferenceable(16) %10, ptr noundef nonnull align 1 dereferenceable(16) %8, i64 16, i1 false)
  ret i64 16
}